target datalayout = "e-m:e-p270:32:32-p271:32:32-p272:64:64-i64:64-i128:128-f80:128-n8:16:32:64-S128"
target triple = "x86_64-pc-linux-gnu"

%"struct.dpx::GenericHeader" = type { i32, i32, [8 x i8], i32, i32, i32, i32, i32, [100 x i8], [24 x i8], [100 x i8], [200 x i8], [200 x i8], i32, [104 x i8], i16, i16, i32, i32, [8 x %"struct.dpx::ImageElement"], [52 x i8], i32, i32, float, float, i32, i32, [100 x i8], [24 x i8], [32 x i8], [32 x i8], [4 x i16], [2 x i32], float, float, [20 x i8] }
%"struct.dpx::ImageElement" = type { i32, i32, float, i32, float, i8, i8, i8, i8, i16, i16, i32, i32, i32, [32 x i8] }

; Function Attrs: mustprogress uwtable
define hidden noundef zeroext i1 @_ZN3dpx6Header4ReadEP8InStream(ptr noundef nonnull align 4 dereferenceable(2049) %0, ptr noundef %1) #7 align 2 {
  %3 = alloca i1, align 1
  %4 = alloca ptr, align 8
  %5 = alloca ptr, align 8
  %6 = alloca i64, align 8
  %7 = alloca i32, align 4
  store ptr %0, ptr %4, align 8, !tbaa !9
  store ptr %1, ptr %5, align 8, !tbaa !93
  %8 = load ptr, ptr %4, align 8
  %9 = load ptr, ptr %5, align 8, !tbaa !93
  %10 = load ptr, ptr %9, align 8, !tbaa !95
  %11 = getelementptr inbounds ptr, ptr %10, i64 2
  %12 = load ptr, ptr %11, align 8
  call void %12(ptr noundef nonnull align 8 dereferenceable(16) %9)
  call void @llvm.lifetime.start.p0(i64 8, ptr %6) #5
  store i64 2048, ptr %6, align 8, !tbaa !97
  %13 = load ptr, ptr %5, align 8, !tbaa !93
  %14 = getelementptr inbounds nuw %"struct.dpx::GenericHeader", ptr %8, i32 0, i32 0
  %15 = load i64, ptr %6, align 8, !tbaa !97
  %16 = load ptr, ptr %13, align 8, !tbaa !95
  %17 = getelementptr inbounds ptr, ptr %16, i64 3
  %18 = load ptr, ptr %17, align 8
  %19 = call noundef i64 %18(ptr noundef nonnull align 8 dereferenceable(16) %13, ptr noundef %14, i64 noundef %15)
  %20 = load i64, ptr %6, align 8, !tbaa !97
  %21 = icmp ne i64 %19, %20
  br i1 %21, label %22, label %23

22:                                               ; preds = %2
  store i1 false, ptr %3, align 1
  store i32 1, ptr %7, align 4
  br label %25

23:                                               ; preds = %2
  %24 = call noundef zeroext i1 @_ZN3dpx6Header8ValidateEv(ptr noundef nonnull align 4 dereferenceable(2049) %8)
  store i1 %24, ptr %3, align 1
  store i32 1, ptr %7, align 4
  br label %25

25:                                               ; preds = %23, %22
  call void @llvm.lifetime.end.p0(i64 8, ptr %6) #5
  %26 = load i1, ptr %3, align 1
  ret i1 %26
}