; Function Attrs: mustprogress uwtable
define hidden noundef zeroext i1 @_ZN3dpx6Header4ReadEP8InStream(ptr noundef nonnull align 4 dereferenceable(2049) %0, ptr noundef %1) local_unnamed_addr #8 align 2 {
  %3 = load ptr, ptr %1, align 8, !tbaa !58
  %4 = getelementptr inbounds nuw i8, ptr %3, i64 16
  %5 = load ptr, ptr %4, align 8
  tail call void %5(ptr noundef nonnull align 8 dereferenceable(16) %1)
  %6 = load ptr, ptr %1, align 8, !tbaa !58
  %7 = getelementptr inbounds nuw i8, ptr %6, i64 24
  %8 = load ptr, ptr %7, align 8
  %9 = tail call noundef i64 %8(ptr noundef nonnull align 8 dereferenceable(16) %1, ptr noundef nonnull %0, i64 noundef 2048)
  %.not = icmp eq i64 %9, 2048
  br i1 %.not, label %10, label %12

10:                                               ; preds = %2
  %11 = tail call noundef zeroext i1 @_ZN3dpx6Header8ValidateEv(ptr noundef nonnull align 4 dereferenceable(2049) %0)
  br label %12

12:                                               ; preds = %2, %10
  %.0 = phi i1 [ %11, %10 ], [ false, %2 ]
  ret i1 %.0
}